target datalayout = "e-m:e-p270:32:32-p271:32:32-p272:64:64-i64:64-i128:128-f80:128-n8:16:32:64-S128"
target triple = "x86_64-pc-linux-gnu"

%struct.lua_TValue = type { %union.Value, [1 x i32], i32 }
%union.Value = type { ptr }
%struct.Closure = type { i8, i8, i8, i8, i8, i8, i8, ptr, ptr, %union.anon.0 }
%union.anon.0 = type { %struct.anon.1 }
%struct.anon.1 = type { ptr, ptr, ptr, [1 x %struct.lua_TValue] }

; Function Attrs: mustprogress uwtable
define hidden void @_Z16luaF_freeclosureP9lua_StateP7ClosureP8lua_Page(ptr noundef %0, ptr noundef %1, ptr noundef %2) #0 {
  %4 = alloca ptr, align 8
  %5 = alloca ptr, align 8
  %6 = alloca ptr, align 8
  %7 = alloca i32, align 4
  store ptr %0, ptr %4, align 8, !tbaa !4
  store ptr %1, ptr %5, align 8, !tbaa !79
  store ptr %2, ptr %6, align 8, !tbaa !104
  call void @llvm.lifetime.start.p0(i64 4, ptr %7) #5
  %8 = load ptr, ptr %5, align 8, !tbaa !79
  %9 = getelementptr inbounds nuw %struct.Closure, ptr %8, i32 0, i32 3
  %10 = load i8, ptr %9, align 1, !tbaa !85
  %11 = icmp ne i8 %10, 0
  br i1 %11, label %12, label %19

12:                                               ; preds = %3
  %13 = load ptr, ptr %5, align 8, !tbaa !79
  %14 = getelementptr inbounds nuw %struct.Closure, ptr %13, i32 0, i32 4
  %15 = load i8, ptr %14, align 4, !tbaa !87
  %16 = zext i8 %15 to i64
  %17 = mul i64 16, %16
  %18 = add i64 48, %17
  br label %26

19:                                               ; preds = %3
  %20 = load ptr, ptr %5, align 8, !tbaa !79
  %21 = getelementptr inbounds nuw %struct.Closure, ptr %20, i32 0, i32 4
  %22 = load i8, ptr %21, align 4, !tbaa !87
  %23 = zext i8 %22 to i64
  %24 = mul i64 16, %23
  %25 = add i64 32, %24
  br label %26

26:                                               ; preds = %19, %12
  %27 = phi i64 [ %18, %12 ], [ %25, %19 ]
  %28 = trunc i64 %27 to i32
  store i32 %28, ptr %7, align 4, !tbaa !77
  %29 = load ptr, ptr %4, align 8, !tbaa !4
  %30 = load ptr, ptr %5, align 8, !tbaa !79
  %31 = getelementptr inbounds %struct.Closure, ptr %30, i64 0
  %32 = load i32, ptr %7, align 4, !tbaa !77
  %33 = sext i32 %32 to i64
  %34 = load ptr, ptr %5, align 8, !tbaa !79
  %35 = getelementptr inbounds nuw %struct.Closure, ptr %34, i32 0, i32 2
  %36 = load i8, ptr %35, align 2, !tbaa !84
  %37 = load ptr, ptr %6, align 8, !tbaa !104
  call void @_Z13luaM_freegco_P9lua_StateP8GCObjectmhP8lua_Page(ptr noundef %29, ptr noundef %31, i64 noundef %33, i8 noundef zeroext %36, ptr noundef %37)
  call void @llvm.lifetime.end.p0(i64 4, ptr %7) #5
  ret void
}