; Function Attrs: mustprogress uwtable
define hidden void @_Z16luaF_freeclosureP9lua_StateP7ClosureP8lua_Page(ptr noundef %0, ptr noundef %1, ptr noundef %2) local_unnamed_addr #0 {
  %4 = getelementptr inbounds nuw i8, ptr %1, i64 3
  %5 = load i8, ptr %4, align 1, !tbaa !47
  %.not = icmp eq i8 %5, 0
  %6 = getelementptr inbounds nuw i8, ptr %1, i64 4
  %7 = load i8, ptr %6, align 4, !tbaa !49
  %8 = zext i8 %7 to i64
  %9 = shl nuw nsw i64 %8, 4
  %. = select i1 %.not, i64 32, i64 48
  %10 = add nuw nsw i64 %9, %.
  %11 = getelementptr inbounds nuw i8, ptr %1, i64 2
  %12 = load i8, ptr %11, align 2, !tbaa !46
  tail call void @_Z13luaM_freegco_P9lua_StateP8GCObjectmhP8lua_Page(ptr noundef %0, ptr noundef nonnull %1, i64 noundef %10, i8 noundef zeroext %12, ptr noundef %2)
  ret void
}